target datalayout = "e-m:e-p270:32:32-p271:32:32-p272:64:64-i64:64-i128:128-f80:128-n8:16:32:64-S128"
target triple = "x86_64-pc-linux-gnu"

%struct.elist = type { ptr, i64 }
%struct.Agobj_s = type { %struct.Agtag_s, ptr }
%struct.Agtag_s = type { i32, i64 }
%struct.Agrec_s = type { ptr, ptr }
%struct.boxf = type { %struct.pointf_s, %struct.pointf_s }
%struct.pointf_s = type { double, double }
%struct.Agnodeinfo_t = type { %struct.Agrec_s, ptr, ptr, %struct.pointf_s, double, double, %struct.boxf, double, double, double, double, double, ptr, ptr, ptr, i8, i8, i8, i8, i32, i32, i32, ptr, double, i8, i8, ptr, ptr, i8, i64, i8, i8, i8, ptr, ptr, %struct.elist, %struct.elist, %struct.elist, %struct.elist, %struct.elist, ptr, i32, ptr, i32, i32, double, %struct.elist, %struct.elist, %struct.elist, %struct.elist, ptr, i32, i32, i32, [1 x double] }
%struct.Agedge_s = type { %struct.Agobj_s, %struct.dtlink_s_, %struct.dtlink_s_, ptr }
%struct.dtlink_s_ = type { ptr, %union.anon }
%union.anon = type { ptr }

; Function Attrs: nounwind uwtable
define internal void @rerank(ptr noundef %0, i32 noundef %1) #0 {
  %3 = alloca ptr, align 8
  %4 = alloca i32, align 4
  %5 = alloca i32, align 4
  %6 = alloca ptr, align 8
  store ptr %0, ptr %3, align 8, !tbaa !48
  store i32 %1, ptr %4, align 4, !tbaa !8
  call void @llvm.lifetime.start.p0(i64 4, ptr %5) #14
  call void @llvm.lifetime.start.p0(i64 8, ptr %6) #14
  %7 = load i32, ptr %4, align 4, !tbaa !8
  %8 = load ptr, ptr %3, align 8, !tbaa !48
  %9 = getelementptr inbounds nuw %struct.Agobj_s, ptr %8, i32 0, i32 1
  %10 = load ptr, ptr %9, align 8, !tbaa !27
  %11 = getelementptr inbounds nuw %struct.Agnodeinfo_t, ptr %10, i32 0, i32 43
  %12 = load i32, ptr %11, align 8, !tbaa !76
  %13 = sub nsw i32 %12, %7
  store i32 %13, ptr %11, align 8, !tbaa !76
  store i32 0, ptr %5, align 4, !tbaa !8
  br label %14

14:                                               ; preds = %51, %2
  %15 = load ptr, ptr %3, align 8, !tbaa !48
  %16 = getelementptr inbounds nuw %struct.Agobj_s, ptr %15, i32 0, i32 1
  %17 = load ptr, ptr %16, align 8, !tbaa !27
  %18 = getelementptr inbounds nuw %struct.Agnodeinfo_t, ptr %17, i32 0, i32 49
  %19 = getelementptr inbounds nuw %struct.elist, ptr %18, i32 0, i32 0
  %20 = load ptr, ptr %19, align 8, !tbaa !82
  %21 = load i32, ptr %5, align 4, !tbaa !8
  %22 = sext i32 %21 to i64
  %23 = getelementptr inbounds ptr, ptr %20, i64 %22
  %24 = load ptr, ptr %23, align 8, !tbaa !19
  store ptr %24, ptr %6, align 8, !tbaa !19
  %25 = icmp ne ptr %24, null
  br i1 %25, label %26, label %54

26:                                               ; preds = %14
  %27 = load ptr, ptr %6, align 8, !tbaa !19
  %28 = load ptr, ptr %3, align 8, !tbaa !48
  %29 = getelementptr inbounds nuw %struct.Agobj_s, ptr %28, i32 0, i32 1
  %30 = load ptr, ptr %29, align 8, !tbaa !27
  %31 = getelementptr inbounds nuw %struct.Agnodeinfo_t, ptr %30, i32 0, i32 50
  %32 = load ptr, ptr %31, align 8, !tbaa !92
  %33 = icmp ne ptr %27, %32
  br i1 %33, label %34, label %50

34:                                               ; preds = %26
  %35 = load ptr, ptr %6, align 8, !tbaa !19
  %36 = getelementptr inbounds nuw %struct.Agobj_s, ptr %35, i32 0, i32 0
  %37 = load i32, ptr %36, align 8
  %38 = and i32 %37, 3
  %39 = icmp eq i32 %38, 2
  br i1 %39, label %40, label %42

40:                                               ; preds = %34
  %41 = load ptr, ptr %6, align 8, !tbaa !19
  br label %45

42:                                               ; preds = %34
  %43 = load ptr, ptr %6, align 8, !tbaa !19
  %44 = getelementptr inbounds %struct.Agedge_s, ptr %43, i64 -1
  br label %45

45:                                               ; preds = %42, %40
  %46 = phi ptr [ %41, %40 ], [ %44, %42 ]
  %47 = getelementptr inbounds nuw %struct.Agedge_s, ptr %46, i32 0, i32 3
  %48 = load ptr, ptr %47, align 8, !tbaa !72
  %49 = load i32, ptr %4, align 4, !tbaa !8
  call void @rerank(ptr noundef %48, i32 noundef %49)
  br label %50

50:                                               ; preds = %45, %26
  br label %51

51:                                               ; preds = %50
  %52 = load i32, ptr %5, align 4, !tbaa !8
  %53 = add nsw i32 %52, 1
  store i32 %53, ptr %5, align 4, !tbaa !8
  br label %14, !llvm.loop !163

54:                                               ; preds = %14
  store i32 0, ptr %5, align 4, !tbaa !8
  br label %55

55:                                               ; preds = %92, %54
  %56 = load ptr, ptr %3, align 8, !tbaa !48
  %57 = getelementptr inbounds nuw %struct.Agobj_s, ptr %56, i32 0, i32 1
  %58 = load ptr, ptr %57, align 8, !tbaa !27
  %59 = getelementptr inbounds nuw %struct.Agnodeinfo_t, ptr %58, i32 0, i32 48
  %60 = getelementptr inbounds nuw %struct.elist, ptr %59, i32 0, i32 0
  %61 = load ptr, ptr %60, align 8, !tbaa !79
  %62 = load i32, ptr %5, align 4, !tbaa !8
  %63 = sext i32 %62 to i64
  %64 = getelementptr inbounds ptr, ptr %61, i64 %63
  %65 = load ptr, ptr %64, align 8, !tbaa !19
  store ptr %65, ptr %6, align 8, !tbaa !19
  %66 = icmp ne ptr %65, null
  br i1 %66, label %67, label %95

67:                                               ; preds = %55
  %68 = load ptr, ptr %6, align 8, !tbaa !19
  %69 = load ptr, ptr %3, align 8, !tbaa !48
  %70 = getelementptr inbounds nuw %struct.Agobj_s, ptr %69, i32 0, i32 1
  %71 = load ptr, ptr %70, align 8, !tbaa !27
  %72 = getelementptr inbounds nuw %struct.Agnodeinfo_t, ptr %71, i32 0, i32 50
  %73 = load ptr, ptr %72, align 8, !tbaa !92
  %74 = icmp ne ptr %68, %73
  br i1 %74, label %75, label %91

75:                                               ; preds = %67
  %76 = load ptr, ptr %6, align 8, !tbaa !19
  %77 = getelementptr inbounds nuw %struct.Agobj_s, ptr %76, i32 0, i32 0
  %78 = load i32, ptr %77, align 8
  %79 = and i32 %78, 3
  %80 = icmp eq i32 %79, 3
  br i1 %80, label %81, label %83

81:                                               ; preds = %75
  %82 = load ptr, ptr %6, align 8, !tbaa !19
  br label %86

83:                                               ; preds = %75
  %84 = load ptr, ptr %6, align 8, !tbaa !19
  %85 = getelementptr inbounds %struct.Agedge_s, ptr %84, i64 1
  br label %86

86:                                               ; preds = %83, %81
  %87 = phi ptr [ %82, %81 ], [ %85, %83 ]
  %88 = getelementptr inbounds nuw %struct.Agedge_s, ptr %87, i32 0, i32 3
  %89 = load ptr, ptr %88, align 8, !tbaa !72
  %90 = load i32, ptr %4, align 4, !tbaa !8
  call void @rerank(ptr noundef %89, i32 noundef %90)
  br label %91

91:                                               ; preds = %86, %67
  br label %92

92:                                               ; preds = %91
  %93 = load i32, ptr %5, align 4, !tbaa !8
  %94 = add nsw i32 %93, 1
  store i32 %94, ptr %5, align 4, !tbaa !8
  br label %55, !llvm.loop !164

95:                                               ; preds = %55
  call void @llvm.lifetime.end.p0(i64 8, ptr %6) #14
  call void @llvm.lifetime.end.p0(i64 4, ptr %5) #14
  ret void
}