; Function Attrs: nofree nosync nounwind memory(readwrite, inaccessiblemem: none) uwtable
define internal fastcc void @rerank(ptr noundef readonly captures(none) %0, i32 noundef range(i32 -2147483647, -2147483648) %1) unnamed_addr #11 {
  %3 = getelementptr inbounds nuw i8, ptr %0, i64 16
  %4 = load ptr, ptr %3, align 8, !tbaa !6
  %5 = getelementptr inbounds nuw i8, ptr %4, i64 360
  %6 = load i32, ptr %5, align 8, !tbaa !60
  %7 = sub nsw i32 %6, %1
  store i32 %7, ptr %5, align 8, !tbaa !60
  %8 = getelementptr inbounds nuw i8, ptr %4, i64 424
  %9 = load ptr, ptr %8, align 8, !tbaa !66
  %10 = load ptr, ptr %9, align 8, !tbaa !30
  %.not25 = icmp eq ptr %10, null
  br i1 %.not25, label %.preheader, label %.lr.ph

.preheader:                                       ; preds = %26, %2
  %11 = phi ptr [ %4, %2 ], [ %27, %26 ]
  %12 = getelementptr inbounds nuw i8, ptr %11, i64 408
  %13 = load ptr, ptr %12, align 8, !tbaa !63
  %14 = load ptr, ptr %13, align 8, !tbaa !30
  %.not2127 = icmp eq ptr %14, null
  br i1 %.not2127, label %._crit_edge, label %.lr.ph29

.lr.ph:                                           ; preds = %2, %26
  %15 = phi ptr [ %27, %26 ], [ %4, %2 ]
  %indvars.iv = phi i64 [ %indvars.iv.next, %26 ], [ 0, %2 ]
  %16 = phi ptr [ %31, %26 ], [ %10, %2 ]
  %17 = getelementptr inbounds nuw i8, ptr %15, i64 440
  %18 = load ptr, ptr %17, align 8, !tbaa !74
  %.not23 = icmp eq ptr %16, %18
  br i1 %.not23, label %26, label %19

19:                                               ; preds = %.lr.ph
  %20 = load i32, ptr %16, align 8
  %21 = and i32 %20, 3
  %22 = icmp eq i32 %21, 2
  %.idx24 = select i1 %22, i64 0, i64 -64
  %23 = getelementptr inbounds i8, ptr %16, i64 %.idx24
  %24 = getelementptr inbounds nuw i8, ptr %23, i64 56
  %25 = load ptr, ptr %24, align 8, !tbaa !56
  tail call fastcc void @rerank(ptr noundef %25, i32 noundef %1)
  %.pre = load ptr, ptr %3, align 8, !tbaa !6
  br label %26

26:                                               ; preds = %.lr.ph, %19
  %27 = phi ptr [ %15, %.lr.ph ], [ %.pre, %19 ]
  %indvars.iv.next = add nuw nsw i64 %indvars.iv, 1
  %28 = getelementptr inbounds nuw i8, ptr %27, i64 424
  %29 = load ptr, ptr %28, align 8, !tbaa !66
  %30 = getelementptr inbounds nuw ptr, ptr %29, i64 %indvars.iv.next
  %31 = load ptr, ptr %30, align 8, !tbaa !30
  %.not = icmp eq ptr %31, null
  br i1 %.not, label %.preheader, label %.lr.ph, !llvm.loop !146

.lr.ph29:                                         ; preds = %.preheader, %43
  %32 = phi ptr [ %44, %43 ], [ %11, %.preheader ]
  %indvars.iv31 = phi i64 [ %indvars.iv.next32, %43 ], [ 0, %.preheader ]
  %33 = phi ptr [ %48, %43 ], [ %14, %.preheader ]
  %34 = getelementptr inbounds nuw i8, ptr %32, i64 440
  %35 = load ptr, ptr %34, align 8, !tbaa !74
  %.not22 = icmp eq ptr %33, %35
  br i1 %.not22, label %43, label %36

36:                                               ; preds = %.lr.ph29
  %37 = load i32, ptr %33, align 8
  %38 = and i32 %37, 3
  %39 = icmp eq i32 %38, 3
  %.idx = select i1 %39, i64 0, i64 64
  %40 = getelementptr inbounds nuw i8, ptr %33, i64 %.idx
  %41 = getelementptr inbounds nuw i8, ptr %40, i64 56
  %42 = load ptr, ptr %41, align 8, !tbaa !56
  tail call fastcc void @rerank(ptr noundef %42, i32 noundef %1)
  %.pre34 = load ptr, ptr %3, align 8, !tbaa !6
  br label %43

43:                                               ; preds = %.lr.ph29, %36
  %44 = phi ptr [ %32, %.lr.ph29 ], [ %.pre34, %36 ]
  %indvars.iv.next32 = add nuw nsw i64 %indvars.iv31, 1
  %45 = getelementptr inbounds nuw i8, ptr %44, i64 408
  %46 = load ptr, ptr %45, align 8, !tbaa !63
  %47 = getelementptr inbounds nuw ptr, ptr %46, i64 %indvars.iv.next32
  %48 = load ptr, ptr %47, align 8, !tbaa !30
  %.not21 = icmp eq ptr %48, null
  br i1 %.not21, label %._crit_edge, label %.lr.ph29, !llvm.loop !147

._crit_edge:                                      ; preds = %43, %.preheader
  ret void
}